; Function Attrs: nounwind uwtable
define internal ptr @meth_get__doc__(ptr noundef readonly captures(none) %0, ptr readnone captures(none) %1) #0 {
  %3 = getelementptr inbounds nuw i8, ptr %0, i64 16
  %4 = load ptr, ptr %3, align 8, !tbaa !22
  %5 = load ptr, ptr %4, align 8, !tbaa !13
  %6 = getelementptr inbounds nuw i8, ptr %4, i64 24
  %7 = load ptr, ptr %6, align 8, !tbaa !125
  %8 = tail call ptr @_PyType_GetDocFromInternalDoc(ptr noundef %5, ptr noundef %7) #5
  ret ptr %8
}